target datalayout = "e-m:e-p270:32:32-p271:32:32-p272:64:64-i64:64-i128:128-f80:128-n8:16:32:64-S128"
target triple = "x86_64-pc-linux-gnu"

%struct.SDL_hid_device_info = type { ptr, i16, i16, ptr, i16, ptr, ptr, i16, i16, i32, i32, i32, i32, i32, ptr }
%struct.SDL_hid_device = type { ptr, ptr, %struct.SDL_hid_device_info }

@udev_ctx = internal global ptr null, align 8
@SDL_hidapi_refcount = internal global i32 0, align 4

; Function Attrs: nounwind uwtable
define internal ptr @CreateHIDDeviceWrapper(ptr noundef %0, ptr noundef %1) #0 {
  %3 = alloca ptr, align 8
  %4 = alloca ptr, align 8
  %5 = alloca ptr, align 8
  store ptr %0, ptr %3, align 8
  store ptr %1, ptr %4, align 8
  call void @llvm.lifetime.start.p0(i64 8, ptr %5) #10
  %6 = call noalias ptr @SDL_malloc_REAL(i64 noundef 96)
  store ptr %6, ptr %5, align 8
  %7 = load ptr, ptr %5, align 8
  call void @SDL_SetObjectValid(ptr noundef %7, i32 noundef 8, i1 noundef zeroext true)
  %8 = load ptr, ptr %3, align 8
  %9 = load ptr, ptr %5, align 8
  %10 = getelementptr inbounds nuw %struct.SDL_hid_device, ptr %9, i32 0, i32 0
  store ptr %8, ptr %10, align 8
  %11 = load ptr, ptr %4, align 8
  %12 = load ptr, ptr %5, align 8
  %13 = getelementptr inbounds nuw %struct.SDL_hid_device, ptr %12, i32 0, i32 1
  store ptr %11, ptr %13, align 8
  %14 = load ptr, ptr %5, align 8
  %15 = getelementptr inbounds nuw %struct.SDL_hid_device, ptr %14, i32 0, i32 2
  call void @llvm.memset.p0.i64(ptr align 8 %15, i8 0, i64 80, i1 false)
  %16 = load ptr, ptr %5, align 8
  call void @llvm.lifetime.end.p0(i64 8, ptr %5) #10
  ret ptr %16
}

; Function Attrs: nounwind uwtable
define hidden ptr @SDL_hid_open_REAL(i16 noundef zeroext %0, i16 noundef zeroext %1, ptr noundef %2) #0 {
  %4 = alloca ptr, align 8
  %5 = alloca i16, align 2
  %6 = alloca i16, align 2
  %7 = alloca ptr, align 8
  %8 = alloca ptr, align 8
  %9 = alloca i32, align 4
  store i16 %0, ptr %5, align 2
  store i16 %1, ptr %6, align 2
  store ptr %2, ptr %7, align 8
  call void @llvm.lifetime.start.p0(i64 8, ptr %8) #10
  store ptr null, ptr %8, align 8
  %10 = load i32, ptr @SDL_hidapi_refcount, align 4
  %11 = icmp eq i32 %10, 0
  br i1 %11, label %12, label %16

12:                                               ; preds = %3
  %13 = call i32 @SDL_hid_init_REAL()
  %14 = icmp slt i32 %13, 0
  br i1 %14, label %15, label %16

15:                                               ; preds = %12
  store ptr null, ptr %4, align 8
  store i32 1, ptr %9, align 4
  br label %31

16:                                               ; preds = %12, %3
  %17 = load ptr, ptr @udev_ctx, align 8
  %18 = icmp ne ptr %17, null
  br i1 %18, label %19, label %30

19:                                               ; preds = %16
  %20 = load i16, ptr %5, align 2
  %21 = load i16, ptr %6, align 2
  %22 = load ptr, ptr %7, align 8
  %23 = call ptr @PLATFORM_hid_open(i16 noundef zeroext %20, i16 noundef zeroext %21, ptr noundef %22)
  store ptr %23, ptr %8, align 8
  %24 = load ptr, ptr %8, align 8
  %25 = icmp ne ptr %24, null
  br i1 %25, label %26, label %29

26:                                               ; preds = %19
  %27 = load ptr, ptr %8, align 8
  %28 = call ptr @CreateHIDDeviceWrapper(ptr noundef %27, ptr noundef @PLATFORM_Backend)
  store ptr %28, ptr %4, align 8
  store i32 1, ptr %9, align 4
  br label %31

29:                                               ; preds = %19
  br label %30

30:                                               ; preds = %29, %16
  store ptr null, ptr %4, align 8
  store i32 1, ptr %9, align 4
  br label %31

31:                                               ; preds = %30, %26, %15
  call void @llvm.lifetime.end.p0(i64 8, ptr %8) #10
  %32 = load ptr, ptr %4, align 8
  ret ptr %32
}