; Function Attrs: nounwind uwtable
define hidden noundef ptr @SDL_hid_open_REAL(i16 noundef zeroext %0, i16 noundef zeroext %1, ptr noundef %2) local_unnamed_addr #1 {
  %4 = load i32, ptr @SDL_hidapi_refcount, align 4
  %5 = icmp eq i32 %4, 0
  br i1 %5, label %6, label %10

6:                                                ; preds = %3
  %7 = tail call i32 @SDL_hid_init_REAL()
  %8 = icmp slt i32 %7, 0
  %9 = load ptr, ptr @udev_ctx, align 8
  %.not = icmp eq ptr %9, null
  %or.cond = select i1 %8, i1 true, i1 %.not
  br i1 %or.cond, label %17, label %11

10:                                               ; preds = %3
  %.old = load ptr, ptr @udev_ctx, align 8
  %.not.old = icmp eq ptr %.old, null
  br i1 %.not.old, label %17, label %11

11:                                               ; preds = %6, %10
  %12 = tail call ptr @PLATFORM_hid_open(i16 noundef zeroext %0, i16 noundef zeroext %1, ptr noundef %2)
  %.not6 = icmp eq ptr %12, null
  br i1 %.not6, label %17, label %13

13:                                               ; preds = %11
  %14 = tail call noalias ptr @SDL_malloc_REAL(i64 noundef 96) #22
  tail call void @SDL_SetObjectValid(ptr noundef %14, i32 noundef 8, i1 noundef zeroext true) #22
  store ptr %12, ptr %14, align 8
  %15 = getelementptr inbounds nuw i8, ptr %14, i64 8
  store ptr @PLATFORM_Backend, ptr %15, align 8
  %16 = getelementptr inbounds nuw i8, ptr %14, i64 16
  tail call void @llvm.memset.p0.i64(ptr noundef nonnull align 8 dereferenceable(80) %16, i8 0, i64 80, i1 false)
  br label %17

17:                                               ; preds = %10, %11, %6, %13
  %.0 = phi ptr [ %14, %13 ], [ null, %6 ], [ null, %11 ], [ null, %10 ]
  ret ptr %.0
}